; Function Attrs: mustprogress uwtable
define hidden noundef ptr @_ZN7datalog16relation_manager22mk_filter_identical_fnERKNS_13relation_baseEjPKj(ptr noundef nonnull readnone align 8 captures(none) dereferenceable(200) %0, ptr noundef nonnull align 8 dereferenceable(28) %1, i32 noundef %2, ptr noundef %3) local_unnamed_addr #4 align 2 {
  %5 = getelementptr inbounds nuw i8, ptr %1, i64 8
  %6 = load ptr, ptr %5, align 8, !tbaa !426
  %7 = load ptr, ptr %6, align 8, !tbaa !3
  %8 = getelementptr inbounds nuw i8, ptr %7, i64 136
  %9 = load ptr, ptr %8, align 8
  %10 = tail call noundef ptr %9(ptr noundef nonnull align 8 dereferenceable(32) %6, ptr noundef nonnull align 8 dereferenceable(28) %1, i32 noundef %2, ptr noundef %3)
  ret ptr %10
}